; Function Attrs: mustprogress uwtable
define void @_ZNK8QuantLib17StochasticProcess11expectationEdRKNS_5ArrayEd(ptr dead_on_unwind noalias writable sret(%"class.QuantLib::Array") align 8 %agg.result, ptr noundef nonnull align 8 dereferenceable(128) %this, double noundef %t0, ptr noundef nonnull align 8 dereferenceable(16) %x0, double noundef %dt) unnamed_addr #7 align 2 personality ptr @__gxx_personality_v0 {
entry:
  %ref.tmp = alloca %"class.QuantLib::Array", align 8
  call void @llvm.lifetime.start.p0(i64 16, ptr nonnull %ref.tmp) #27
  %discretization_ = getelementptr inbounds nuw i8, ptr %this, i64 112
  %0 = load ptr, ptr %discretization_, align 8, !tbaa !30
  %cmp.not.i = icmp eq ptr %0, null
  br i1 %cmp.not.i, label %cond.false.i, label %_ZNK5boost10shared_ptrIN8QuantLib17StochasticProcess14discretizationEEptEv.exit, !prof !34

cond.false.i:                                     ; preds = %entry
  tail call void @_ZN5boost16assertion_failedEPKcS1_S1_l(ptr noundef nonnull @.str.11, ptr noundef nonnull @__PRETTY_FUNCTION__._ZNK5boost10shared_ptrIN8QuantLib17StochasticProcess14discretizationEEptEv, ptr noundef nonnull @.str.12, i64 noundef 784)
  %.pre.i = load ptr, ptr %discretization_, align 8, !tbaa !30
  br label %_ZNK5boost10shared_ptrIN8QuantLib17StochasticProcess14discretizationEEptEv.exit

_ZNK5boost10shared_ptrIN8QuantLib17StochasticProcess14discretizationEEptEv.exit: ; preds = %entry, %cond.false.i
  %1 = phi ptr [ %0, %entry ], [ %.pre.i, %cond.false.i ]
  %vtable = load ptr, ptr %1, align 8, !tbaa !28
  %vfn = getelementptr inbounds i8, ptr %vtable, i64 16
  %2 = load ptr, ptr %vfn, align 8
  call void %2(ptr dead_on_unwind nonnull writable sret(%"class.QuantLib::Array") align 8 %ref.tmp, ptr noundef nonnull align 8 dereferenceable(8) %1, ptr noundef nonnull align 8 dereferenceable(128) %this, double noundef %t0, ptr noundef nonnull align 8 dereferenceable(16) %x0, double noundef %dt)
  %vtable2 = load ptr, ptr %this, align 8, !tbaa !28
  %vfn3 = getelementptr inbounds i8, ptr %vtable2, i64 104
  %3 = load ptr, ptr %vfn3, align 8
  invoke void %3(ptr dead_on_unwind writable sret(%"class.QuantLib::Array") align 8 %agg.result, ptr noundef nonnull align 8 dereferenceable(128) %this, ptr noundef nonnull align 8 dereferenceable(16) %x0, ptr noundef nonnull align 8 dereferenceable(16) %ref.tmp)
          to label %invoke.cont unwind label %lpad

invoke.cont:                                      ; preds = %_ZNK5boost10shared_ptrIN8QuantLib17StochasticProcess14discretizationEEptEv.exit
  %4 = load ptr, ptr %ref.tmp, align 8, !tbaa !3
  %cmp.not.i.i = icmp eq ptr %4, null
  br i1 %cmp.not.i.i, label %_ZN8QuantLib5ArrayD2Ev.exit, label %_ZNKSt14default_deleteIA_dEclIdEENSt9enable_ifIXsr14is_convertibleIPA_T_PS0_EE5valueEvE4typeEPS4_.exit.i.i

_ZNKSt14default_deleteIA_dEclIdEENSt9enable_ifIXsr14is_convertibleIPA_T_PS0_EE5valueEvE4typeEPS4_.exit.i.i: ; preds = %invoke.cont
  call void @_ZdaPv(ptr noundef nonnull %4) #29
  br label %_ZN8QuantLib5ArrayD2Ev.exit

_ZN8QuantLib5ArrayD2Ev.exit:                      ; preds = %invoke.cont, %_ZNKSt14default_deleteIA_dEclIdEENSt9enable_ifIXsr14is_convertibleIPA_T_PS0_EE5valueEvE4typeEPS4_.exit.i.i
  call void @llvm.lifetime.end.p0(i64 16, ptr nonnull %ref.tmp) #27
  ret void

lpad:                                             ; preds = %_ZNK5boost10shared_ptrIN8QuantLib17StochasticProcess14discretizationEEptEv.exit
  %5 = landingpad { ptr, i32 }
          cleanup
  %6 = load ptr, ptr %ref.tmp, align 8, !tbaa !3
  %cmp.not.i.i2 = icmp eq ptr %6, null
  br i1 %cmp.not.i.i2, label %_ZN8QuantLib5ArrayD2Ev.exit4, label %_ZNKSt14default_deleteIA_dEclIdEENSt9enable_ifIXsr14is_convertibleIPA_T_PS0_EE5valueEvE4typeEPS4_.exit.i.i3

_ZNKSt14default_deleteIA_dEclIdEENSt9enable_ifIXsr14is_convertibleIPA_T_PS0_EE5valueEvE4typeEPS4_.exit.i.i3: ; preds = %lpad
  call void @_ZdaPv(ptr noundef nonnull %6) #29
  br label %_ZN8QuantLib5ArrayD2Ev.exit4

_ZN8QuantLib5ArrayD2Ev.exit4:                     ; preds = %lpad, %_ZNKSt14default_deleteIA_dEclIdEENSt9enable_ifIXsr14is_convertibleIPA_T_PS0_EE5valueEvE4typeEPS4_.exit.i.i3
  call void @llvm.lifetime.end.p0(i64 16, ptr nonnull %ref.tmp) #27
  resume { ptr, i32 } %5
}